target datalayout = "e-m:e-p270:32:32-p271:32:32-p272:64:64-i64:64-i128:128-f80:128-n8:16:32:64-S128"
target triple = "x86_64-pc-linux-gnu"

%struct._xmlNode = type { ptr, i32, ptr, ptr, ptr, ptr, ptr, ptr, ptr, ptr, ptr, ptr, ptr, ptr, i16, i16 }
%struct._xmlNs = type { ptr, i32, ptr, ptr, ptr, ptr }

@.str.154 = private unnamed_addr constant [90 x i8] c"Current node in traversal is not in the document. Please report this as a bug in php-src.\00", align 1

; Function Attrs: nounwind uwtable
define hidden ptr @dom_get_elements_by_tag_name_ns_raw(ptr noundef %0, ptr noundef %1, ptr noundef %2, ptr noundef %3, ptr noundef %4, i32 noundef %5) #0 {
  %7 = alloca ptr, align 8
  %8 = alloca ptr, align 8
  %9 = alloca ptr, align 8
  %10 = alloca ptr, align 8
  %11 = alloca ptr, align 8
  %12 = alloca ptr, align 8
  %13 = alloca i32, align 4
  %14 = alloca ptr, align 8
  %15 = alloca i8, align 1
  %16 = alloca i8, align 1
  store ptr %0, ptr %8, align 8
  store ptr %1, ptr %9, align 8
  store ptr %2, ptr %10, align 8
  store ptr %3, ptr %11, align 8
  store ptr %4, ptr %12, align 8
  store i32 %5, ptr %13, align 4
  %17 = load ptr, ptr %9, align 8
  %18 = icmp eq ptr %17, null
  %19 = xor i1 %18, true
  %20 = xor i1 %19, true
  %21 = zext i1 %20 to i32
  %22 = sext i32 %21 to i64
  %23 = icmp ne i64 %22, 0
  br i1 %23, label %24, label %25

24:                                               ; preds = %6
  store ptr null, ptr %7, align 8
  br label %169

25:                                               ; preds = %6
  store ptr null, ptr %14, align 8
  %26 = load ptr, ptr %11, align 8
  %27 = getelementptr inbounds i8, ptr %26, i64 0
  %28 = load i8, ptr %27, align 1
  %29 = sext i8 %28 to i32
  %30 = icmp eq i32 %29, 42
  br i1 %30, label %31, label %37

31:                                               ; preds = %25
  %32 = load ptr, ptr %11, align 8
  %33 = getelementptr inbounds i8, ptr %32, i64 1
  %34 = load i8, ptr %33, align 1
  %35 = sext i8 %34 to i32
  %36 = icmp eq i32 %35, 0
  br label %37

37:                                               ; preds = %31, %25
  %38 = phi i1 [ false, %25 ], [ %36, %31 ]
  %39 = zext i1 %38 to i8
  store i8 %39, ptr %15, align 1
  %40 = load ptr, ptr %10, align 8
  %41 = icmp eq ptr %40, null
  br i1 %41, label %56, label %42

42:                                               ; preds = %37
  %43 = load ptr, ptr %10, align 8
  %44 = getelementptr inbounds i8, ptr %43, i64 0
  %45 = load i8, ptr %44, align 1
  %46 = sext i8 %45 to i32
  %47 = icmp eq i32 %46, 42
  br i1 %47, label %48, label %54

48:                                               ; preds = %42
  %49 = load ptr, ptr %10, align 8
  %50 = getelementptr inbounds i8, ptr %49, i64 1
  %51 = load i8, ptr %50, align 1
  %52 = sext i8 %51 to i32
  %53 = icmp eq i32 %52, 0
  br label %54

54:                                               ; preds = %48, %42
  %55 = phi i1 [ false, %42 ], [ %53, %48 ]
  br label %56

56:                                               ; preds = %54, %37
  %57 = phi i1 [ true, %37 ], [ %55, %54 ]
  %58 = zext i1 %57 to i8
  store i8 %58, ptr %16, align 1
  br label %59

59:                                               ; preds = %166, %124, %56
  %60 = load ptr, ptr %12, align 8
  %61 = load i32, ptr %60, align 4
  %62 = load i32, ptr %13, align 4
  %63 = icmp sle i32 %61, %62
  br i1 %63, label %64, label %167

64:                                               ; preds = %59
  %65 = load ptr, ptr %9, align 8
  %66 = getelementptr inbounds %struct._xmlNode, ptr %65, i32 0, i32 1
  %67 = load i32, ptr %66, align 8
  %68 = icmp eq i32 %67, 1
  br i1 %68, label %69, label %129

69:                                               ; preds = %64
  %70 = load i8, ptr %15, align 1
  %71 = trunc i8 %70 to i1
  br i1 %71, label %79, label %72

72:                                               ; preds = %69
  %73 = load ptr, ptr %9, align 8
  %74 = getelementptr inbounds %struct._xmlNode, ptr %73, i32 0, i32 2
  %75 = load ptr, ptr %74, align 8
  %76 = load ptr, ptr %11, align 8
  %77 = call i32 @xmlStrEqual(ptr noundef %75, ptr noundef %76)
  %78 = icmp ne i32 %77, 0
  br i1 %78, label %79, label %119

79:                                               ; preds = %72, %69
  %80 = load i8, ptr %16, align 1
  %81 = trunc i8 %80 to i1
  br i1 %81, label %107, label %82

82:                                               ; preds = %79
  %83 = load ptr, ptr %10, align 8
  %84 = getelementptr inbounds i8, ptr %83, i64 0
  %85 = load i8, ptr %84, align 1
  %86 = sext i8 %85 to i32
  %87 = icmp eq i32 %86, 0
  br i1 %87, label %88, label %93

88:                                               ; preds = %82
  %89 = load ptr, ptr %9, align 8
  %90 = getelementptr inbounds %struct._xmlNode, ptr %89, i32 0, i32 9
  %91 = load ptr, ptr %90, align 8
  %92 = icmp eq ptr %91, null
  br i1 %92, label %107, label %93

93:                                               ; preds = %88, %82
  %94 = load ptr, ptr %9, align 8
  %95 = getelementptr inbounds %struct._xmlNode, ptr %94, i32 0, i32 9
  %96 = load ptr, ptr %95, align 8
  %97 = icmp ne ptr %96, null
  br i1 %97, label %98, label %118

98:                                               ; preds = %93
  %99 = load ptr, ptr %9, align 8
  %100 = getelementptr inbounds %struct._xmlNode, ptr %99, i32 0, i32 9
  %101 = load ptr, ptr %100, align 8
  %102 = getelementptr inbounds %struct._xmlNs, ptr %101, i32 0, i32 2
  %103 = load ptr, ptr %102, align 8
  %104 = load ptr, ptr %10, align 8
  %105 = call i32 @xmlStrEqual(ptr noundef %103, ptr noundef %104)
  %106 = icmp ne i32 %105, 0
  br i1 %106, label %107, label %118

107:                                              ; preds = %98, %88, %79
  %108 = load ptr, ptr %12, align 8
  %109 = load i32, ptr %108, align 4
  %110 = load i32, ptr %13, align 4
  %111 = icmp eq i32 %109, %110
  br i1 %111, label %112, label %114

112:                                              ; preds = %107
  %113 = load ptr, ptr %9, align 8
  store ptr %113, ptr %14, align 8
  br label %167

114:                                              ; preds = %107
  %115 = load ptr, ptr %12, align 8
  %116 = load i32, ptr %115, align 4
  %117 = add nsw i32 %116, 1
  store i32 %117, ptr %115, align 4
  br label %118

118:                                              ; preds = %114, %98, %93
  br label %119

119:                                              ; preds = %118, %72
  %120 = load ptr, ptr %9, align 8
  %121 = getelementptr inbounds %struct._xmlNode, ptr %120, i32 0, i32 3
  %122 = load ptr, ptr %121, align 8
  %123 = icmp ne ptr %122, null
  br i1 %123, label %124, label %128

124:                                              ; preds = %119
  %125 = load ptr, ptr %9, align 8
  %126 = getelementptr inbounds %struct._xmlNode, ptr %125, i32 0, i32 3
  %127 = load ptr, ptr %126, align 8
  store ptr %127, ptr %9, align 8
  br label %59

128:                                              ; preds = %119
  br label %129

129:                                              ; preds = %128, %64
  %130 = load ptr, ptr %9, align 8
  %131 = getelementptr inbounds %struct._xmlNode, ptr %130, i32 0, i32 6
  %132 = load ptr, ptr %131, align 8
  %133 = icmp ne ptr %132, null
  br i1 %133, label %134, label %138

134:                                              ; preds = %129
  %135 = load ptr, ptr %9, align 8
  %136 = getelementptr inbounds %struct._xmlNode, ptr %135, i32 0, i32 6
  %137 = load ptr, ptr %136, align 8
  store ptr %137, ptr %9, align 8
  br label %166

138:                                              ; preds = %129
  br label %139

139:                                              ; preds = %157, %138
  %140 = load ptr, ptr %9, align 8
  %141 = getelementptr inbounds %struct._xmlNode, ptr %140, i32 0, i32 5
  %142 = load ptr, ptr %141, align 8
  store ptr %142, ptr %9, align 8
  %143 = load ptr, ptr %9, align 8
  %144 = load ptr, ptr %8, align 8
  %145 = icmp eq ptr %143, %144
  br i1 %145, label %146, label %147

146:                                              ; preds = %139
  store ptr null, ptr %7, align 8
  br label %169

147:                                              ; preds = %139
  %148 = load ptr, ptr %9, align 8
  %149 = icmp eq ptr %148, null
  %150 = xor i1 %149, true
  %151 = xor i1 %150, true
  %152 = zext i1 %151 to i32
  %153 = sext i32 %152 to i64
  %154 = icmp ne i64 %153, 0
  br i1 %154, label %155, label %156

155:                                              ; preds = %147
  call void (ptr, ptr, ...) @zend_throw_error(ptr noundef null, ptr noundef @.str.154)
  store ptr null, ptr %7, align 8
  br label %169

156:                                              ; preds = %147
  br label %157

157:                                              ; preds = %156
  %158 = load ptr, ptr %9, align 8
  %159 = getelementptr inbounds %struct._xmlNode, ptr %158, i32 0, i32 6
  %160 = load ptr, ptr %159, align 8
  %161 = icmp eq ptr %160, null
  br i1 %161, label %139, label %162

162:                                              ; preds = %157
  %163 = load ptr, ptr %9, align 8
  %164 = getelementptr inbounds %struct._xmlNode, ptr %163, i32 0, i32 6
  %165 = load ptr, ptr %164, align 8
  store ptr %165, ptr %9, align 8
  br label %166

166:                                              ; preds = %162, %134
  br label %59

167:                                              ; preds = %112, %59
  %168 = load ptr, ptr %14, align 8
  store ptr %168, ptr %7, align 8
  br label %169

169:                                              ; preds = %167, %155, %146, %24
  %170 = load ptr, ptr %7, align 8
  ret ptr %170
}