; Function Attrs: nounwind uwtable
define hidden ptr @dom_get_elements_by_tag_name_ns_raw(ptr noundef readnone %0, ptr noundef readonly %1, ptr noundef %2, ptr noundef %3, ptr nocapture noundef %4, i32 noundef %5) local_unnamed_addr #1 {
  %7 = icmp eq ptr %1, null
  br i1 %7, label %.loopexit, label %8

8:                                                ; preds = %6
  %9 = load i8, ptr %3, align 1
  %10 = icmp eq i8 %9, 42
  br i1 %10, label %11, label %15

11:                                               ; preds = %8
  %12 = getelementptr inbounds i8, ptr %3, i64 1
  %13 = load i8, ptr %12, align 1
  %.fr97 = freeze i8 %13
  %14 = icmp eq i8 %.fr97, 0
  br label %15

15:                                               ; preds = %11, %8
  %.fr72 = phi i1 [ false, %8 ], [ %14, %11 ]
  %16 = icmp eq ptr %2, null
  br i1 %16, label %24, label %17

17:                                               ; preds = %15
  %18 = load i8, ptr %2, align 1
  %19 = icmp eq i8 %18, 42
  br i1 %19, label %20, label %.thread

20:                                               ; preds = %17
  %21 = getelementptr inbounds i8, ptr %2, i64 1
  %22 = load i8, ptr %21, align 1
  %.fr98 = freeze i8 %22
  %23 = icmp eq i8 %.fr98, 0
  br label %24

24:                                               ; preds = %20, %15
  %.fr = phi i1 [ true, %15 ], [ %23, %20 ]
  %25 = load i32, ptr %4, align 4
  %.not51 = icmp sgt i32 %25, %5
  br i1 %.not51, label %.loopexit, label %.lr.ph

.thread:                                          ; preds = %17
  %26 = load i32, ptr %4, align 4
  %.not51100 = icmp sgt i32 %26, %5
  br i1 %.not51100, label %.loopexit, label %.lr.ph.split

.lr.ph:                                           ; preds = %24
  br i1 %.fr, label %.lr.ph.split.us, label %.lr.ph.split

.lr.ph.split.us:                                  ; preds = %.lr.ph
  br i1 %.fr72, label %.lr.ph.split.us.split.us, label %.lr.ph.split.us.split

.lr.ph.split.us.split.us:                         ; preds = %.lr.ph.split.us, %.backedge.us.us
  %27 = phi i32 [ %50, %.backedge.us.us ], [ %25, %.lr.ph.split.us ]
  %.03352.us.us = phi ptr [ %.033.be.us.us, %.backedge.us.us ], [ %1, %.lr.ph.split.us ]
  %28 = getelementptr inbounds i8, ptr %.03352.us.us, i64 8
  %29 = load i32, ptr %28, align 8
  %30 = icmp eq i32 %29, 1
  br i1 %30, label %31, label %37

31:                                               ; preds = %.lr.ph.split.us.split.us
  %32 = icmp eq i32 %27, %5
  br i1 %32, label %.loopexit, label %33

33:                                               ; preds = %31
  %34 = add nsw i32 %27, 1
  store i32 %34, ptr %4, align 4
  %35 = getelementptr inbounds i8, ptr %.03352.us.us, i64 24
  %36 = load ptr, ptr %35, align 8
  %.not47.us.us = icmp eq ptr %36, null
  br i1 %.not47.us.us, label %37, label %.backedge.us.us

37:                                               ; preds = %33, %.lr.ph.split.us.split.us
  %38 = phi i32 [ %34, %33 ], [ %27, %.lr.ph.split.us.split.us ]
  %39 = getelementptr inbounds i8, ptr %.03352.us.us, i64 48
  %40 = load ptr, ptr %39, align 8
  %.not48.us.us = icmp eq ptr %40, null
  br i1 %.not48.us.us, label %.preheader.us.us, label %.backedge.us.us

.preheader.us.us:                                 ; preds = %37, %46
  %.1.us.us = phi ptr [ %42, %46 ], [ %.03352.us.us, %37 ]
  %41 = getelementptr inbounds i8, ptr %.1.us.us, i64 40
  %42 = load ptr, ptr %41, align 8
  %43 = icmp eq ptr %42, %0
  br i1 %43, label %.loopexit, label %44

44:                                               ; preds = %.preheader.us.us
  %45 = icmp eq ptr %42, null
  br i1 %45, label %.split.us, label %46

46:                                               ; preds = %44
  %47 = getelementptr inbounds i8, ptr %42, i64 48
  %48 = load ptr, ptr %47, align 8
  %49 = icmp eq ptr %48, null
  br i1 %49, label %.preheader.us.us, label %.backedge.us.us

.backedge.us.us:                                  ; preds = %46, %37, %33
  %50 = phi i32 [ %34, %33 ], [ %38, %37 ], [ %38, %46 ]
  %.033.be.us.us = phi ptr [ %36, %33 ], [ %40, %37 ], [ %48, %46 ]
  %.not.us.us = icmp sgt i32 %50, %5
  br i1 %.not.us.us, label %.loopexit, label %.lr.ph.split.us.split.us

.lr.ph.split.us.split:                            ; preds = %.lr.ph.split.us, %.backedge.us
  %.03352.us = phi ptr [ %.033.be.us, %.backedge.us ], [ %1, %.lr.ph.split.us ]
  %51 = getelementptr inbounds i8, ptr %.03352.us, i64 8
  %52 = load i32, ptr %51, align 8
  %53 = icmp eq i32 %52, 1
  br i1 %53, label %54, label %66

54:                                               ; preds = %.lr.ph.split.us.split
  %55 = getelementptr inbounds i8, ptr %.03352.us, i64 16
  %56 = load ptr, ptr %55, align 8
  %57 = tail call i32 @xmlStrEqual(ptr noundef %56, ptr noundef nonnull %3) #16
  %.not44.us = icmp eq i32 %57, 0
  br i1 %.not44.us, label %63, label %58

58:                                               ; preds = %54
  %59 = load i32, ptr %4, align 4
  %60 = icmp eq i32 %59, %5
  br i1 %60, label %.loopexit, label %61

61:                                               ; preds = %58
  %62 = add nsw i32 %59, 1
  store i32 %62, ptr %4, align 4
  br label %63

63:                                               ; preds = %61, %54
  %64 = getelementptr inbounds i8, ptr %.03352.us, i64 24
  %65 = load ptr, ptr %64, align 8
  %.not47.us = icmp eq ptr %65, null
  br i1 %.not47.us, label %66, label %.backedge.us

66:                                               ; preds = %63, %.lr.ph.split.us.split
  %67 = getelementptr inbounds i8, ptr %.03352.us, i64 48
  %68 = load ptr, ptr %67, align 8
  %.not48.us = icmp eq ptr %68, null
  br i1 %.not48.us, label %.preheader.us, label %.backedge.us

.preheader.us:                                    ; preds = %66, %74
  %.1.us = phi ptr [ %70, %74 ], [ %.03352.us, %66 ]
  %69 = getelementptr inbounds i8, ptr %.1.us, i64 40
  %70 = load ptr, ptr %69, align 8
  %71 = icmp eq ptr %70, %0
  br i1 %71, label %.loopexit, label %72

72:                                               ; preds = %.preheader.us
  %73 = icmp eq ptr %70, null
  br i1 %73, label %.split.us, label %74

74:                                               ; preds = %72
  %75 = getelementptr inbounds i8, ptr %70, i64 48
  %76 = load ptr, ptr %75, align 8
  %77 = icmp eq ptr %76, null
  br i1 %77, label %.preheader.us, label %.backedge.us

.backedge.us:                                     ; preds = %74, %66, %63
  %.033.be.us = phi ptr [ %65, %63 ], [ %68, %66 ], [ %76, %74 ]
  %78 = load i32, ptr %4, align 4
  %.not.us = icmp sgt i32 %78, %5
  br i1 %.not.us, label %.loopexit, label %.lr.ph.split.us.split

.lr.ph.split:                                     ; preds = %.thread, %.lr.ph
  %79 = phi i32 [ %25, %.lr.ph ], [ %26, %.thread ]
  br i1 %.fr72, label %.lr.ph.split.split.us, label %.lr.ph.split.split

.lr.ph.split.split.us:                            ; preds = %.lr.ph.split, %.backedge.us65
  %80 = phi i32 [ %115, %.backedge.us65 ], [ %79, %.lr.ph.split ]
  %.03352.us57 = phi ptr [ %.033.be.us66, %.backedge.us65 ], [ %1, %.lr.ph.split ]
  %81 = getelementptr inbounds i8, ptr %.03352.us57, i64 8
  %82 = load i32, ptr %81, align 8
  %83 = icmp eq i32 %82, 1
  br i1 %83, label %84, label %103

84:                                               ; preds = %.lr.ph.split.split.us
  %85 = load i8, ptr %2, align 1
  %86 = icmp eq i8 %85, 0
  %87 = getelementptr inbounds i8, ptr %.03352.us57, i64 72
  %88 = load ptr, ptr %87, align 8
  %89 = icmp eq ptr %88, null
  br i1 %86, label %90, label %91

90:                                               ; preds = %84
  br i1 %89, label %95, label %.thread103

91:                                               ; preds = %84
  br i1 %89, label %100, label %.thread103

.thread103:                                       ; preds = %90, %91
  %92 = getelementptr inbounds i8, ptr %88, i64 16
  %93 = load ptr, ptr %92, align 8
  %94 = tail call i32 @xmlStrEqual(ptr noundef %93, ptr noundef nonnull %2) #16
  %.not46.us = icmp eq i32 %94, 0
  br i1 %.not46.us, label %100, label %._crit_edge95

._crit_edge95:                                    ; preds = %.thread103
  %.pre96 = load i32, ptr %4, align 4
  br label %95

95:                                               ; preds = %._crit_edge95, %90
  %96 = phi i32 [ %.pre96, %._crit_edge95 ], [ %80, %90 ]
  %97 = icmp eq i32 %96, %5
  br i1 %97, label %.loopexit, label %98

98:                                               ; preds = %95
  %99 = add nsw i32 %96, 1
  store i32 %99, ptr %4, align 4
  br label %100

100:                                              ; preds = %98, %.thread103, %91
  %101 = getelementptr inbounds i8, ptr %.03352.us57, i64 24
  %102 = load ptr, ptr %101, align 8
  %.not47.us58 = icmp eq ptr %102, null
  br i1 %.not47.us58, label %103, label %.backedge.us65

103:                                              ; preds = %100, %.lr.ph.split.split.us
  %104 = getelementptr inbounds i8, ptr %.03352.us57, i64 48
  %105 = load ptr, ptr %104, align 8
  %.not48.us59 = icmp eq ptr %105, null
  br i1 %.not48.us59, label %.preheader.us62, label %.backedge.us65

.preheader.us62:                                  ; preds = %103, %111
  %.1.us60 = phi ptr [ %107, %111 ], [ %.03352.us57, %103 ]
  %106 = getelementptr inbounds i8, ptr %.1.us60, i64 40
  %107 = load ptr, ptr %106, align 8
  %108 = icmp eq ptr %107, %0
  br i1 %108, label %.loopexit, label %109

109:                                              ; preds = %.preheader.us62
  %110 = icmp eq ptr %107, null
  br i1 %110, label %.split.us, label %111

111:                                              ; preds = %109
  %112 = getelementptr inbounds i8, ptr %107, i64 48
  %113 = load ptr, ptr %112, align 8
  %114 = icmp eq ptr %113, null
  br i1 %114, label %.preheader.us62, label %.backedge.us65

.backedge.us65:                                   ; preds = %111, %103, %100
  %.033.be.us66 = phi ptr [ %102, %100 ], [ %105, %103 ], [ %113, %111 ]
  %115 = load i32, ptr %4, align 4
  %.not.us67 = icmp sgt i32 %115, %5
  br i1 %.not.us67, label %.loopexit, label %.lr.ph.split.split.us

.lr.ph.split.split:                               ; preds = %.lr.ph.split, %.backedge
  %.03352 = phi ptr [ %.033.be, %.backedge ], [ %1, %.lr.ph.split ]
  %116 = getelementptr inbounds i8, ptr %.03352, i64 8
  %117 = load i32, ptr %116, align 8
  %118 = icmp eq i32 %117, 1
  br i1 %118, label %119, label %142

119:                                              ; preds = %.lr.ph.split.split
  %120 = getelementptr inbounds i8, ptr %.03352, i64 16
  %121 = load ptr, ptr %120, align 8
  %122 = tail call i32 @xmlStrEqual(ptr noundef %121, ptr noundef nonnull %3) #16
  %.not44 = icmp eq i32 %122, 0
  br i1 %.not44, label %139, label %123

123:                                              ; preds = %119
  %124 = load i8, ptr %2, align 1
  %125 = icmp eq i8 %124, 0
  %126 = getelementptr inbounds i8, ptr %.03352, i64 72
  %127 = load ptr, ptr %126, align 8
  %128 = icmp eq ptr %127, null
  br i1 %125, label %129, label %130

129:                                              ; preds = %123
  br i1 %128, label %134, label %.thread105

130:                                              ; preds = %123
  br i1 %128, label %139, label %.thread105

.thread105:                                       ; preds = %129, %130
  %131 = getelementptr inbounds i8, ptr %127, i64 16
  %132 = load ptr, ptr %131, align 8
  %133 = tail call i32 @xmlStrEqual(ptr noundef %132, ptr noundef nonnull %2) #16
  %.not46 = icmp eq i32 %133, 0
  br i1 %.not46, label %139, label %134

134:                                              ; preds = %.thread105, %129
  %135 = load i32, ptr %4, align 4
  %136 = icmp eq i32 %135, %5
  br i1 %136, label %.loopexit, label %137

137:                                              ; preds = %134
  %138 = add nsw i32 %135, 1
  store i32 %138, ptr %4, align 4
  br label %139

139:                                              ; preds = %130, %.thread105, %137, %119
  %140 = getelementptr inbounds i8, ptr %.03352, i64 24
  %141 = load ptr, ptr %140, align 8
  %.not47 = icmp eq ptr %141, null
  br i1 %.not47, label %142, label %.backedge

142:                                              ; preds = %139, %.lr.ph.split.split
  %143 = getelementptr inbounds i8, ptr %.03352, i64 48
  %144 = load ptr, ptr %143, align 8
  %.not48 = icmp eq ptr %144, null
  br i1 %.not48, label %.preheader, label %.backedge

.preheader:                                       ; preds = %142, %150
  %.1 = phi ptr [ %146, %150 ], [ %.03352, %142 ]
  %145 = getelementptr inbounds i8, ptr %.1, i64 40
  %146 = load ptr, ptr %145, align 8
  %147 = icmp eq ptr %146, %0
  br i1 %147, label %.loopexit, label %148

148:                                              ; preds = %.preheader
  %149 = icmp eq ptr %146, null
  br i1 %149, label %.split.us, label %150

.split.us:                                        ; preds = %148, %109, %72, %44
  tail call void (ptr, ptr, ...) @zend_throw_error(ptr noundef null, ptr noundef nonnull @.str.154) #16
  br label %.loopexit

150:                                              ; preds = %148
  %151 = getelementptr inbounds i8, ptr %146, i64 48
  %152 = load ptr, ptr %151, align 8
  %153 = icmp eq ptr %152, null
  br i1 %153, label %.preheader, label %.backedge

.backedge:                                        ; preds = %150, %142, %139
  %.033.be = phi ptr [ %141, %139 ], [ %144, %142 ], [ %152, %150 ]
  %154 = load i32, ptr %4, align 4
  %.not = icmp sgt i32 %154, %5
  br i1 %.not, label %.loopexit, label %.lr.ph.split.split

.loopexit:                                        ; preds = %134, %.backedge, %.preheader, %95, %.backedge.us65, %.preheader.us62, %58, %.backedge.us, %.preheader.us, %31, %.backedge.us.us, %.preheader.us.us, %.thread, %24, %6, %.split.us
  %.0 = phi ptr [ null, %.split.us ], [ null, %6 ], [ null, %24 ], [ null, %.thread ], [ null, %.preheader.us.us ], [ %.03352.us.us, %31 ], [ null, %.backedge.us.us ], [ null, %.preheader.us ], [ %.03352.us, %58 ], [ null, %.backedge.us ], [ null, %.preheader.us62 ], [ %.03352.us57, %95 ], [ null, %.backedge.us65 ], [ null, %.preheader ], [ %.03352, %134 ], [ null, %.backedge ]
  ret ptr %.0
}